; ModuleID = '33/1089.c'
source_filename = "33/1089.c"
target datalayout = "e-m:e-p270:32:32-p271:32:32-p272:64:64-i64:64-f80:128-n8:16:32:64-S128"
target triple = "x86_64-pc-linux-gnu"

@.str = private unnamed_addr constant [3 x i8] c"%d\00", align 1
@.str.1 = private unnamed_addr constant [3 x i8] c"%s\00", align 1
@.str.2 = private unnamed_addr constant [3 x i8] c"T\0A\00", align 1
@.str.3 = private unnamed_addr constant [3 x i8] c"A\0A\00", align 1
@.str.4 = private unnamed_addr constant [3 x i8] c"G\0A\00", align 1
@.str.5 = private unnamed_addr constant [3 x i8] c"C\0A\00", align 1
@.str.6 = private unnamed_addr constant [2 x i8] c"T\00", align 1
@.str.7 = private unnamed_addr constant [2 x i8] c"A\00", align 1
@.str.8 = private unnamed_addr constant [2 x i8] c"G\00", align 1
@.str.9 = private unnamed_addr constant [2 x i8] c"C\00", align 1

; Function Attrs: noinline nounwind uwtable
define dso_local i32 @main() #0 {
  %1 = alloca i32, align 4
  %2 = alloca i32, align 4
  %3 = alloca i32, align 4
  %4 = alloca i32, align 4
  %5 = alloca i32, align 4
  %6 = alloca [300 x i8], align 16
  store i32 0, i32* %1, align 4
  %7 = call i32 (i8*, ...) @__isoc99_scanf(i8* getelementptr inbounds ([3 x i8], [3 x i8]* @.str, i64 0, i64 0), i32* %2)
  store i32 0, i32* %3, align 4
  br label %8

8:                                                ; preds = %109, %0
  %9 = load i32, i32* %3, align 4
  %10 = load i32, i32* %2, align 4
  %11 = icmp slt i32 %9, %10
  br i1 %11, label %12, label %112

12:                                               ; preds = %8
  %13 = getelementptr inbounds [300 x i8], [300 x i8]* %6, i64 0, i64 0
  %14 = call i32 (i8*, ...) @__isoc99_scanf(i8* getelementptr inbounds ([3 x i8], [3 x i8]* @.str.1, i64 0, i64 0), i8* %13)
  %15 = getelementptr inbounds [300 x i8], [300 x i8]* %6, i64 0, i64 0
  %16 = call i64 @strlen(i8* %15) #3
  %17 = trunc i64 %16 to i32
  store i32 %17, i32* %4, align 4
  store i32 0, i32* %5, align 4
  br label %18

18:                                               ; preds = %105, %12
  %19 = load i32, i32* %5, align 4
  %20 = sext i32 %19 to i64
  %21 = getelementptr inbounds [300 x i8], [300 x i8]* %6, i64 0, i64 %20
  %22 = load i8, i8* %21, align 1
  %23 = sext i8 %22 to i32
  %24 = icmp ne i32 %23, 0
  br i1 %24, label %25, label %108

25:                                               ; preds = %18
  %26 = load i32, i32* %5, align 4
  %27 = load i32, i32* %4, align 4
  %28 = sub nsw i32 %27, 1
  %29 = icmp eq i32 %26, %28
  br i1 %29, label %30, label %67

30:                                               ; preds = %25
  %31 = load i32, i32* %5, align 4
  %32 = sext i32 %31 to i64
  %33 = getelementptr inbounds [300 x i8], [300 x i8]* %6, i64 0, i64 %32
  %34 = load i8, i8* %33, align 1
  %35 = sext i8 %34 to i32
  %36 = icmp eq i32 %35, 65
  br i1 %36, label %37, label %39

37:                                               ; preds = %30
  %38 = call i32 (i8*, ...) @printf(i8* getelementptr inbounds ([3 x i8], [3 x i8]* @.str.2, i64 0, i64 0))
  br label %39

39:                                               ; preds = %37, %30
  %40 = load i32, i32* %5, align 4
  %41 = sext i32 %40 to i64
  %42 = getelementptr inbounds [300 x i8], [300 x i8]* %6, i64 0, i64 %41
  %43 = load i8, i8* %42, align 1
  %44 = sext i8 %43 to i32
  %45 = icmp eq i32 %44, 84
  br i1 %45, label %46, label %48

46:                                               ; preds = %39
  %47 = call i32 (i8*, ...) @printf(i8* getelementptr inbounds ([3 x i8], [3 x i8]* @.str.3, i64 0, i64 0))
  br label %48

48:                                               ; preds = %46, %39
  %49 = load i32, i32* %5, align 4
  %50 = sext i32 %49 to i64
  %51 = getelementptr inbounds [300 x i8], [300 x i8]* %6, i64 0, i64 %50
  %52 = load i8, i8* %51, align 1
  %53 = sext i8 %52 to i32
  %54 = icmp eq i32 %53, 67
  br i1 %54, label %55, label %57

55:                                               ; preds = %48
  %56 = call i32 (i8*, ...) @printf(i8* getelementptr inbounds ([3 x i8], [3 x i8]* @.str.4, i64 0, i64 0))
  br label %57

57:                                               ; preds = %55, %48
  %58 = load i32, i32* %5, align 4
  %59 = sext i32 %58 to i64
  %60 = getelementptr inbounds [300 x i8], [300 x i8]* %6, i64 0, i64 %59
  %61 = load i8, i8* %60, align 1
  %62 = sext i8 %61 to i32
  %63 = icmp eq i32 %62, 71
  br i1 %63, label %64, label %66

64:                                               ; preds = %57
  %65 = call i32 (i8*, ...) @printf(i8* getelementptr inbounds ([3 x i8], [3 x i8]* @.str.5, i64 0, i64 0))
  br label %66

66:                                               ; preds = %64, %57
  br label %104

67:                                               ; preds = %25
  %68 = load i32, i32* %5, align 4
  %69 = sext i32 %68 to i64
  %70 = getelementptr inbounds [300 x i8], [300 x i8]* %6, i64 0, i64 %69
  %71 = load i8, i8* %70, align 1
  %72 = sext i8 %71 to i32
  %73 = icmp eq i32 %72, 65
  br i1 %73, label %74, label %76

74:                                               ; preds = %67
  %75 = call i32 (i8*, ...) @printf(i8* getelementptr inbounds ([2 x i8], [2 x i8]* @.str.6, i64 0, i64 0))
  br label %76

76:                                               ; preds = %74, %67
  %77 = load i32, i32* %5, align 4
  %78 = sext i32 %77 to i64
  %79 = getelementptr inbounds [300 x i8], [300 x i8]* %6, i64 0, i64 %78
  %80 = load i8, i8* %79, align 1
  %81 = sext i8 %80 to i32
  %82 = icmp eq i32 %81, 84
  br i1 %82, label %83, label %85

83:                                               ; preds = %76
  %84 = call i32 (i8*, ...) @printf(i8* getelementptr inbounds ([2 x i8], [2 x i8]* @.str.7, i64 0, i64 0))
  br label %85

85:                                               ; preds = %83, %76
  %86 = load i32, i32* %5, align 4
  %87 = sext i32 %86 to i64
  %88 = getelementptr inbounds [300 x i8], [300 x i8]* %6, i64 0, i64 %87
  %89 = load i8, i8* %88, align 1
  %90 = sext i8 %89 to i32
  %91 = icmp eq i32 %90, 67
  br i1 %91, label %92, label %94

92:                                               ; preds = %85
  %93 = call i32 (i8*, ...) @printf(i8* getelementptr inbounds ([2 x i8], [2 x i8]* @.str.8, i64 0, i64 0))
  br label %94

94:                                               ; preds = %92, %85
  %95 = load i32, i32* %5, align 4
  %96 = sext i32 %95 to i64
  %97 = getelementptr inbounds [300 x i8], [300 x i8]* %6, i64 0, i64 %96
  %98 = load i8, i8* %97, align 1
  %99 = sext i8 %98 to i32
  %100 = icmp eq i32 %99, 71
  br i1 %100, label %101, label %103

101:                                              ; preds = %94
  %102 = call i32 (i8*, ...) @printf(i8* getelementptr inbounds ([2 x i8], [2 x i8]* @.str.9, i64 0, i64 0))
  br label %103

103:                                              ; preds = %101, %94
  br label %104

104:                                              ; preds = %103, %66
  br label %105

105:                                              ; preds = %104
  %106 = load i32, i32* %5, align 4
  %107 = add nsw i32 %106, 1
  store i32 %107, i32* %5, align 4
  br label %18

108:                                              ; preds = %18
  br label %109

109:                                              ; preds = %108
  %110 = load i32, i32* %3, align 4
  %111 = add nsw i32 %110, 1
  store i32 %111, i32* %3, align 4
  br label %8

112:                                              ; preds = %8
  ret i32 0
}

declare dso_local i32 @__isoc99_scanf(i8*, ...) #1

; Function Attrs: nounwind readonly
declare dso_local i64 @strlen(i8*) #2

declare dso_local i32 @printf(i8*, ...) #1


!llvm.module.flags = !{!0}
!llvm.ident = !{!1}

!0 = !{i32 1, !"wchar_size", i32 4}
!1 = !{!"clang version 10.0.0-4ubuntu1 "}
